target datalayout = "e-m:e-p270:32:32-p271:32:32-p272:64:64-i64:64-i128:128-f80:128-n8:16:32:64-S128"
target triple = "x86_64-pc-linux-gnu"

@hf_glusterfs_gfid = internal global i32 0, align 4
@hf_glusterfs_path = internal global i32 0, align 4
@hf_glusterfs_type = internal global i32 0, align 4
@hf_glusterfs_cmd = internal global i32 0, align 4
@hf_glusterfs_volume = internal global i32 0, align 4
@hf_glusterfs_flock_type = internal global i32 0, align 4
@hf_glusterfs_flock_whence = internal global i32 0, align 4
@hf_glusterfs_flock_start = internal global i32 0, align 4
@hf_glusterfs_flock_len = internal global i32 0, align 4
@hf_glusterfs_flock_pid = internal global i32 0, align 4
@hf_glusterfs_flock_owner = internal global i32 0, align 4
@ett_glusterfs_flock = internal global i32 0, align 4
@.str.564 = private unnamed_addr constant [6 x i8] c"Flock\00", align 1

; Function Attrs: null_pointer_is_valid sspstrong uwtable
define internal i32 @glusterfs_rpc_dissect_gf_flock(ptr noundef %0, ptr noundef %1, i32 noundef %2) #0 {
  %4 = alloca ptr, align 8
  %5 = alloca ptr, align 8
  %6 = alloca i32, align 4
  store ptr %0, ptr %4, align 8
  store ptr %1, ptr %5, align 8
  store i32 %2, ptr %6, align 4
  %7 = load ptr, ptr %5, align 8
  %8 = load ptr, ptr %4, align 8
  %9 = load i32, ptr @hf_glusterfs_flock_type, align 4
  %10 = load i32, ptr %6, align 4
  %11 = call i32 @dissect_rpc_uint32(ptr noundef %7, ptr noundef %8, i32 noundef %9, i32 noundef %10)
  store i32 %11, ptr %6, align 4
  %12 = load ptr, ptr %5, align 8
  %13 = load ptr, ptr %4, align 8
  %14 = load i32, ptr @hf_glusterfs_flock_whence, align 4
  %15 = load i32, ptr %6, align 4
  %16 = call i32 @dissect_rpc_uint32(ptr noundef %12, ptr noundef %13, i32 noundef %14, i32 noundef %15)
  store i32 %16, ptr %6, align 4
  %17 = load ptr, ptr %5, align 8
  %18 = load ptr, ptr %4, align 8
  %19 = load i32, ptr @hf_glusterfs_flock_start, align 4
  %20 = load i32, ptr %6, align 4
  %21 = call i32 @dissect_rpc_uint64(ptr noundef %17, ptr noundef %18, i32 noundef %19, i32 noundef %20)
  store i32 %21, ptr %6, align 4
  %22 = load ptr, ptr %5, align 8
  %23 = load ptr, ptr %4, align 8
  %24 = load i32, ptr @hf_glusterfs_flock_len, align 4
  %25 = load i32, ptr %6, align 4
  %26 = call i32 @dissect_rpc_uint64(ptr noundef %22, ptr noundef %23, i32 noundef %24, i32 noundef %25)
  store i32 %26, ptr %6, align 4
  %27 = load ptr, ptr %5, align 8
  %28 = load ptr, ptr %4, align 8
  %29 = load i32, ptr @hf_glusterfs_flock_pid, align 4
  %30 = load i32, ptr %6, align 4
  %31 = call i32 @dissect_rpc_uint32(ptr noundef %27, ptr noundef %28, i32 noundef %29, i32 noundef %30)
  store i32 %31, ptr %6, align 4
  %32 = load ptr, ptr %4, align 8
  %33 = load i32, ptr @hf_glusterfs_flock_owner, align 4
  %34 = load ptr, ptr %5, align 8
  %35 = load i32, ptr %6, align 4
  %36 = call ptr @proto_tree_add_item(ptr noundef %32, i32 noundef %33, ptr noundef %34, i32 noundef %35, i32 noundef 8, i32 noundef 0)
  %37 = load i32, ptr %6, align 4
  %38 = add i32 %37, 8
  store i32 %38, ptr %6, align 4
  %39 = load i32, ptr %6, align 4
  ret i32 %39
}

; Function Attrs: null_pointer_is_valid sspstrong uwtable
define internal i32 @glusterfs_rpc_dissect_gfid(ptr noundef %0, ptr noundef %1, i32 noundef %2, i32 noundef %3) #0 {
  %5 = alloca ptr, align 8
  %6 = alloca ptr, align 8
  %7 = alloca i32, align 4
  %8 = alloca i32, align 4
  store ptr %0, ptr %5, align 8
  store ptr %1, ptr %6, align 8
  store i32 %2, ptr %7, align 4
  store i32 %3, ptr %8, align 4
  %9 = load ptr, ptr %5, align 8
  %10 = load i32, ptr %7, align 4
  %11 = load ptr, ptr %6, align 8
  %12 = load i32, ptr %8, align 4
  %13 = call ptr @proto_tree_add_item(ptr noundef %9, i32 noundef %10, ptr noundef %11, i32 noundef %12, i32 noundef 16, i32 noundef 0)
  %14 = load i32, ptr %8, align 4
  %15 = add i32 %14, 16
  store i32 %15, ptr %8, align 4
  %16 = load i32, ptr %8, align 4
  ret i32 %16
}

; Function Attrs: null_pointer_is_valid sspstrong uwtable
define internal i32 @glusterfs_gfs3_op_inodelk_call(ptr noundef %0, ptr noundef %1, ptr noundef %2, ptr noundef %3) #0 {
  %5 = alloca ptr, align 8
  %6 = alloca ptr, align 8
  %7 = alloca ptr, align 8
  %8 = alloca ptr, align 8
  %9 = alloca ptr, align 8
  %10 = alloca ptr, align 8
  %11 = alloca i32, align 4
  %12 = alloca i32, align 4
  store ptr %0, ptr %5, align 8
  store ptr %1, ptr %6, align 8
  store ptr %2, ptr %7, align 8
  store ptr %3, ptr %8, align 8
  call void @llvm.lifetime.start.p0(i64 8, ptr %9) #5
  call void @llvm.lifetime.start.p0(i64 8, ptr %10) #5
  call void @llvm.lifetime.start.p0(i64 4, ptr %11) #5
  call void @llvm.lifetime.start.p0(i64 4, ptr %12) #5
  store i32 0, ptr %12, align 4
  %13 = load ptr, ptr %7, align 8
  %14 = load ptr, ptr %5, align 8
  %15 = load i32, ptr @hf_glusterfs_gfid, align 4
  %16 = load i32, ptr %12, align 4
  %17 = call i32 @glusterfs_rpc_dissect_gfid(ptr noundef %13, ptr noundef %14, i32 noundef %15, i32 noundef %16)
  store i32 %17, ptr %12, align 4
  %18 = load ptr, ptr %5, align 8
  %19 = load ptr, ptr %7, align 8
  %20 = load i32, ptr @hf_glusterfs_cmd, align 4
  %21 = load i32, ptr %12, align 4
  %22 = call i32 @dissect_rpc_uint32(ptr noundef %18, ptr noundef %19, i32 noundef %20, i32 noundef %21)
  store i32 %22, ptr %12, align 4
  %23 = load ptr, ptr %5, align 8
  %24 = load ptr, ptr %7, align 8
  %25 = load i32, ptr @hf_glusterfs_type, align 4
  %26 = load i32, ptr %12, align 4
  %27 = call i32 @dissect_rpc_uint32(ptr noundef %23, ptr noundef %24, i32 noundef %25, i32 noundef %26)
  store i32 %27, ptr %12, align 4
  %28 = load i32, ptr %12, align 4
  store i32 %28, ptr %11, align 4
  %29 = load ptr, ptr %7, align 8
  %30 = load ptr, ptr %5, align 8
  %31 = load i32, ptr %12, align 4
  %32 = load i32, ptr @ett_glusterfs_flock, align 4
  %33 = call ptr @proto_tree_add_subtree(ptr noundef %29, ptr noundef %30, i32 noundef %31, i32 noundef -1, i32 noundef %32, ptr noundef %9, ptr noundef @.str.564)
  store ptr %33, ptr %10, align 8
  %34 = load ptr, ptr %10, align 8
  %35 = load ptr, ptr %5, align 8
  %36 = load i32, ptr %12, align 4
  %37 = call i32 @glusterfs_rpc_dissect_gf_flock(ptr noundef %34, ptr noundef %35, i32 noundef %36)
  store i32 %37, ptr %12, align 4
  %38 = load ptr, ptr %9, align 8
  %39 = load i32, ptr %12, align 4
  %40 = load i32, ptr %11, align 4
  %41 = sub i32 %39, %40
  call void @proto_item_set_len(ptr noundef %38, i32 noundef %41)
  %42 = load ptr, ptr %5, align 8
  %43 = load ptr, ptr %7, align 8
  %44 = load i32, ptr @hf_glusterfs_path, align 4
  %45 = load i32, ptr %12, align 4
  %46 = call i32 @dissect_rpc_string(ptr noundef %42, ptr noundef %43, i32 noundef %44, i32 noundef %45, ptr noundef null)
  store i32 %46, ptr %12, align 4
  %47 = load ptr, ptr %5, align 8
  %48 = load ptr, ptr %7, align 8
  %49 = load i32, ptr @hf_glusterfs_volume, align 4
  %50 = load i32, ptr %12, align 4
  %51 = call i32 @dissect_rpc_string(ptr noundef %47, ptr noundef %48, i32 noundef %49, i32 noundef %50, ptr noundef null)
  store i32 %51, ptr %12, align 4
  %52 = load i32, ptr %12, align 4
  call void @llvm.lifetime.end.p0(i64 4, ptr %12) #5
  call void @llvm.lifetime.end.p0(i64 4, ptr %11) #5
  call void @llvm.lifetime.end.p0(i64 8, ptr %10) #5
  call void @llvm.lifetime.end.p0(i64 8, ptr %9) #5
  ret i32 %52
}