; Function Attrs: null_pointer_is_valid sspstrong uwtable
define internal i32 @glusterfs_gfs3_op_inodelk_call(ptr noundef %0, ptr readnone captures(none) %1, ptr noundef %2, ptr readnone captures(none) %3) #0 {
  %5 = alloca ptr, align 8
  call void @llvm.lifetime.start.p0(i64 8, ptr nonnull %5) #4
  %6 = load i32, ptr @hf_glusterfs_gfid, align 4
  %7 = tail call ptr @proto_tree_add_item(ptr noundef %2, i32 noundef %6, ptr noundef %0, i32 noundef 0, i32 noundef 16, i32 noundef 0)
  %8 = load i32, ptr @hf_glusterfs_cmd, align 4
  %9 = tail call i32 @dissect_rpc_uint32(ptr noundef %0, ptr noundef %2, i32 noundef %8, i32 noundef 16)
  %10 = load i32, ptr @hf_glusterfs_type, align 4
  %11 = tail call i32 @dissect_rpc_uint32(ptr noundef %0, ptr noundef %2, i32 noundef %10, i32 noundef %9)
  %12 = load i32, ptr @ett_glusterfs_flock, align 4
  %13 = call ptr @proto_tree_add_subtree(ptr noundef %2, ptr noundef %0, i32 noundef %11, i32 noundef -1, i32 noundef %12, ptr noundef nonnull %5, ptr noundef nonnull @.str.564)
  %14 = load i32, ptr @hf_glusterfs_flock_type, align 4
  %15 = call i32 @dissect_rpc_uint32(ptr noundef %0, ptr noundef %13, i32 noundef %14, i32 noundef %11)
  %16 = load i32, ptr @hf_glusterfs_flock_whence, align 4
  %17 = call i32 @dissect_rpc_uint32(ptr noundef %0, ptr noundef %13, i32 noundef %16, i32 noundef %15)
  %18 = load i32, ptr @hf_glusterfs_flock_start, align 4
  %19 = call i32 @dissect_rpc_uint64(ptr noundef %0, ptr noundef %13, i32 noundef %18, i32 noundef %17)
  %20 = load i32, ptr @hf_glusterfs_flock_len, align 4
  %21 = call i32 @dissect_rpc_uint64(ptr noundef %0, ptr noundef %13, i32 noundef %20, i32 noundef %19)
  %22 = load i32, ptr @hf_glusterfs_flock_pid, align 4
  %23 = call i32 @dissect_rpc_uint32(ptr noundef %0, ptr noundef %13, i32 noundef %22, i32 noundef %21)
  %24 = load i32, ptr @hf_glusterfs_flock_owner, align 4
  %25 = call ptr @proto_tree_add_item(ptr noundef %13, i32 noundef %24, ptr noundef %0, i32 noundef %23, i32 noundef 8, i32 noundef 0)
  %26 = add i32 %23, 8
  %27 = load ptr, ptr %5, align 8
  %28 = sub i32 %26, %11
  call void @proto_item_set_len(ptr noundef %27, i32 noundef %28)
  %29 = load i32, ptr @hf_glusterfs_path, align 4
  %30 = call i32 @dissect_rpc_string(ptr noundef %0, ptr noundef %2, i32 noundef %29, i32 noundef %26, ptr noundef null)
  %31 = load i32, ptr @hf_glusterfs_volume, align 4
  %32 = call i32 @dissect_rpc_string(ptr noundef %0, ptr noundef %2, i32 noundef %31, i32 noundef %30, ptr noundef null)
  call void @llvm.lifetime.end.p0(i64 8, ptr nonnull %5) #4
  ret i32 %32
}